target datalayout = "e-m:e-p270:32:32-p271:32:32-p272:64:64-i64:64-i128:128-f80:128-n8:16:32:64-S128"
target triple = "x86_64-pc-linux-gnu"

%struct.rev_info = type { ptr, %struct.object_array, ptr, %struct.object_array, %struct.rev_cmdline_info, %struct.list_objects_filter_options, %struct.ref_exclusions, ptr, ptr, ptr, %struct.pathspec, i32, i32, i32, i32, i64, i32, i32, %struct.date_mode, i32, i32, i32, i32, ptr, i32, i32, ptr, ptr, i32, ptr, ptr, %struct.ident_split, ptr, i32, ptr, ptr, ptr, i32, i32, i32, ptr, %struct.grep_opt, ptr, i32, i32, i64, i64, i64, i32, i32, ptr, ptr, ptr, %struct.diff_options, %struct.diff_options, ptr, %struct.decoration, %struct.decoration, %struct.decoration, %struct.display_notes_opt, ptr, ptr, ptr, ptr, ptr, i32, ptr, i32, i32, i32, %struct.decoration, ptr, ptr, ptr, ptr, ptr, ptr, ptr, i32, ptr, i32, ptr, %struct.oidset }
%struct.object_array = type { i32, i32, ptr }
%struct.rev_cmdline_info = type { i32, i32, ptr }
%struct.list_objects_filter_options = type { %struct.strbuf, i32, i8, ptr, i64, i64, i32, i64, i64, ptr }
%struct.strbuf = type { i64, i64, ptr }
%struct.ref_exclusions = type { %struct.string_list, %struct.strvec, i8 }
%struct.string_list = type { ptr, i64, i64, i8, ptr }
%struct.strvec = type { ptr, i64, i64 }
%struct.pathspec = type { i32, i8, i32, i32, ptr }
%struct.date_mode = type { i32, i32, ptr }
%struct.ident_split = type { ptr, ptr, ptr, ptr, ptr, ptr, ptr, ptr }
%struct.grep_opt = type { ptr, ptr, ptr, ptr, ptr, ptr, i32, i32, i32, i32, i32, i32, i32, i32, i32, i32, i32, i32, i32, i32, i32, i32, i32, i32, i32, i32, i32, i32, i32, i32, i32, i32, [9 x [75 x i8]], i32, i32, i32, i32, i32, i32, i32, ptr, ptr, ptr }
%struct.diff_options = type { ptr, ptr, i32, i32, ptr, i32, ptr, i64, i64, ptr, ptr, ptr, ptr, %struct.diff_flags, i32, i32, i32, i32, i32, i32, i32, i32, i32, i32, i32, i32, i32, i32, i32, i32, i32, i32, i32, i32, i32, i32, ptr, i32, ptr, i32, i32, ptr, i64, i64, i32, i32, i32, i32, ptr, i32, i32, ptr, i32, i32, ptr, ptr, i32, [3 x i8], %struct.pathspec, ptr, ptr, ptr, ptr, ptr, ptr, ptr, ptr, i32, ptr, i32, i32, ptr, ptr, i32 }
%struct.diff_flags = type { i32, i32, i32, i32, i32, i32, i32, i32, i32, i32, i32, i32, i32, i32, i32, i32, i32, i32, i32, i32, i32, i32, i32, i32, i32, i32, i32, i32, i32, i32, i32, i32, i32, i32, i32 }
%struct.display_notes_opt = type { i32, %struct.string_list }
%struct.decoration = type { ptr, i32, i32, ptr }
%struct.oidset = type { %struct.kh_oid_set }
%struct.kh_oid_set = type { i32, i32, i32, i32, ptr, ptr, ptr }
%struct.repository = type { ptr, ptr, ptr, ptr, ptr, %struct.strmap, %struct.strmap, %struct.repo_path_cache, ptr, ptr, ptr, ptr, %struct.repo_settings, ptr, ptr, ptr, ptr, ptr, ptr, i32, i32, i32, ptr, ptr, i32, i32, i8 }
%struct.strmap = type { %struct.hashmap, ptr, i8 }
%struct.hashmap = type { ptr, ptr, ptr, i32, i32, i32, i32, i8 }
%struct.repo_path_cache = type { ptr, ptr, ptr, ptr, ptr, ptr, ptr }
%struct.repo_settings = type { i32, i32, i32, i32, i32, i32, i32, i32, i32, i32, i32, i32, ptr, i32, i32, i32, i32, i32, i32, i32, i64, i64, i64 }

@the_repository = external global ptr, align 8
@.str = private unnamed_addr constant [7 x i8] c"--base\00", align 1
@.str.1 = private unnamed_addr constant [7 x i8] c"--ours\00", align 1
@.str.2 = private unnamed_addr constant [9 x i8] c"--theirs\00", align 1
@.str.3 = private unnamed_addr constant [3 x i8] c"-q\00", align 1
@.str.4 = private unnamed_addr constant [24 x i8] c"repo_read_index_preload\00", align 1

; Function Attrs: inlinehint nounwind uwtable
define internal ptr @precompose_argv_prefix(i32 noundef %0, ptr noundef %1, ptr noundef %2) #3 {
  %4 = alloca i32, align 4
  %5 = alloca ptr, align 8
  %6 = alloca ptr, align 8
  store i32 %0, ptr %4, align 4, !tbaa !4
  store ptr %1, ptr %5, align 8, !tbaa !8
  store ptr %2, ptr %6, align 8, !tbaa !11
  %7 = load ptr, ptr %6, align 8, !tbaa !11
  ret ptr %7
}

; Function Attrs: inlinehint nounwind uwtable
define internal void @git_config(ptr noundef %0, ptr noundef %1) #3 {
  %3 = alloca ptr, align 8
  %4 = alloca ptr, align 8
  store ptr %0, ptr %3, align 8, !tbaa !90
  store ptr %1, ptr %4, align 8, !tbaa !90
  %5 = load ptr, ptr @the_repository, align 8, !tbaa !13
  %6 = load ptr, ptr %3, align 8, !tbaa !90
  %7 = load ptr, ptr %4, align 8, !tbaa !90
  call void @repo_config(ptr noundef %5, ptr noundef %6, ptr noundef %7)
  ret void
}

; Function Attrs: nounwind uwtable
define dso_local i32 @cmd_diff_files(i32 noundef %0, ptr noundef %1, ptr noundef %2, ptr noundef %3) #0 {
  %5 = alloca i32, align 4
  %6 = alloca ptr, align 8
  %7 = alloca ptr, align 8
  %8 = alloca ptr, align 8
  %9 = alloca %struct.rev_info, align 8
  %10 = alloca i32, align 4
  %11 = alloca i32, align 4
  store i32 %0, ptr %5, align 4, !tbaa !4
  store ptr %1, ptr %6, align 8, !tbaa !8
  store ptr %2, ptr %7, align 8, !tbaa !11
  store ptr %3, ptr %8, align 8, !tbaa !13
  call void @llvm.lifetime.start.p0(i64 3008, ptr %9) #6
  call void @llvm.lifetime.start.p0(i64 4, ptr %10) #6
  call void @llvm.lifetime.start.p0(i64 4, ptr %11) #6
  store i32 0, ptr %11, align 4, !tbaa !4
  %12 = load i32, ptr %5, align 4, !tbaa !4
  %13 = load ptr, ptr %6, align 8, !tbaa !8
  call void @show_usage_if_asked(i32 noundef %12, ptr noundef %13, ptr noundef @diff_files_usage)
  call void @git_config(ptr noundef @git_diff_basic_config, ptr noundef null)
  %14 = load ptr, ptr @the_repository, align 8, !tbaa !13
  call void @prepare_repo_settings(ptr noundef %14)
  %15 = load ptr, ptr @the_repository, align 8, !tbaa !13
  %16 = getelementptr inbounds nuw %struct.repository, ptr %15, i32 0, i32 12
  %17 = getelementptr inbounds nuw %struct.repo_settings, ptr %16, i32 0, i32 6
  store i32 0, ptr %17, align 8, !tbaa !15
  %18 = load ptr, ptr @the_repository, align 8, !tbaa !13
  %19 = load ptr, ptr %7, align 8, !tbaa !11
  call void @repo_init_revisions(ptr noundef %18, ptr noundef %9, ptr noundef %19)
  %20 = getelementptr inbounds nuw %struct.rev_info, ptr %9, i32 0, i32 21
  store i32 0, ptr %20, align 8, !tbaa !34
  %21 = getelementptr inbounds nuw %struct.rev_info, ptr %9, i32 0, i32 53
  %22 = getelementptr inbounds nuw %struct.diff_options, ptr %21, i32 0, i32 34
  store i32 1, ptr %22, align 4, !tbaa !80
  %23 = load i32, ptr %5, align 4, !tbaa !4
  %24 = load ptr, ptr %6, align 8, !tbaa !8
  %25 = load ptr, ptr %7, align 8, !tbaa !11
  %26 = call ptr @precompose_argv_prefix(i32 noundef %23, ptr noundef %24, ptr noundef %25)
  store ptr %26, ptr %7, align 8, !tbaa !11
  %27 = load i32, ptr %5, align 4, !tbaa !4
  %28 = load ptr, ptr %6, align 8, !tbaa !8
  %29 = call i32 @setup_revisions(i32 noundef %27, ptr noundef %28, ptr noundef %9, ptr noundef null)
  store i32 %29, ptr %5, align 4, !tbaa !4
  br label %30

30:                                               ; preds = %80, %4
  %31 = load i32, ptr %5, align 4, !tbaa !4
  %32 = icmp slt i32 1, %31
  br i1 %32, label %33, label %41

33:                                               ; preds = %30
  %34 = load ptr, ptr %6, align 8, !tbaa !8
  %35 = getelementptr inbounds ptr, ptr %34, i64 1
  %36 = load ptr, ptr %35, align 8, !tbaa !11
  %37 = getelementptr inbounds i8, ptr %36, i64 0
  %38 = load i8, ptr %37, align 1, !tbaa !81
  %39 = sext i8 %38 to i32
  %40 = icmp eq i32 %39, 45
  br label %41

41:                                               ; preds = %33, %30
  %42 = phi i1 [ false, %30 ], [ %40, %33 ]
  br i1 %42, label %43, label %85

43:                                               ; preds = %41
  %44 = load ptr, ptr %6, align 8, !tbaa !8
  %45 = getelementptr inbounds ptr, ptr %44, i64 1
  %46 = load ptr, ptr %45, align 8, !tbaa !11
  %47 = call i32 @strcmp(ptr noundef %46, ptr noundef @.str) #7
  %48 = icmp ne i32 %47, 0
  br i1 %48, label %51, label %49

49:                                               ; preds = %43
  %50 = getelementptr inbounds nuw %struct.rev_info, ptr %9, i32 0, i32 44
  store i32 1, ptr %50, align 4, !tbaa !82
  br label %80

51:                                               ; preds = %43
  %52 = load ptr, ptr %6, align 8, !tbaa !8
  %53 = getelementptr inbounds ptr, ptr %52, i64 1
  %54 = load ptr, ptr %53, align 8, !tbaa !11
  %55 = call i32 @strcmp(ptr noundef %54, ptr noundef @.str.1) #7
  %56 = icmp ne i32 %55, 0
  br i1 %56, label %59, label %57

57:                                               ; preds = %51
  %58 = getelementptr inbounds nuw %struct.rev_info, ptr %9, i32 0, i32 44
  store i32 2, ptr %58, align 4, !tbaa !82
  br label %79

59:                                               ; preds = %51
  %60 = load ptr, ptr %6, align 8, !tbaa !8
  %61 = getelementptr inbounds ptr, ptr %60, i64 1
  %62 = load ptr, ptr %61, align 8, !tbaa !11
  %63 = call i32 @strcmp(ptr noundef %62, ptr noundef @.str.2) #7
  %64 = icmp ne i32 %63, 0
  br i1 %64, label %67, label %65

65:                                               ; preds = %59
  %66 = getelementptr inbounds nuw %struct.rev_info, ptr %9, i32 0, i32 44
  store i32 3, ptr %66, align 4, !tbaa !82
  br label %78

67:                                               ; preds = %59
  %68 = load ptr, ptr %6, align 8, !tbaa !8
  %69 = getelementptr inbounds ptr, ptr %68, i64 1
  %70 = load ptr, ptr %69, align 8, !tbaa !11
  %71 = call i32 @strcmp(ptr noundef %70, ptr noundef @.str.3) #7
  %72 = icmp ne i32 %71, 0
  br i1 %72, label %76, label %73

73:                                               ; preds = %67
  %74 = load i32, ptr %11, align 4, !tbaa !4
  %75 = or i32 %74, 1
  store i32 %75, ptr %11, align 4, !tbaa !4
  br label %77

76:                                               ; preds = %67
  call void @usage(ptr noundef @diff_files_usage) #8
  unreachable

77:                                               ; preds = %73
  br label %78

78:                                               ; preds = %77, %65
  br label %79

79:                                               ; preds = %78, %57
  br label %80

80:                                               ; preds = %79, %49
  %81 = load ptr, ptr %6, align 8, !tbaa !8
  %82 = getelementptr inbounds nuw ptr, ptr %81, i32 1
  store ptr %82, ptr %6, align 8, !tbaa !8
  %83 = load i32, ptr %5, align 4, !tbaa !4
  %84 = add nsw i32 %83, -1
  store i32 %84, ptr %5, align 4, !tbaa !4
  br label %30, !llvm.loop !83

85:                                               ; preds = %41
  %86 = getelementptr inbounds nuw %struct.rev_info, ptr %9, i32 0, i32 53
  %87 = getelementptr inbounds nuw %struct.diff_options, ptr %86, i32 0, i32 24
  %88 = load i32, ptr %87, align 4, !tbaa !85
  %89 = icmp ne i32 %88, 0
  br i1 %89, label %93, label %90

90:                                               ; preds = %85
  %91 = getelementptr inbounds nuw %struct.rev_info, ptr %9, i32 0, i32 53
  %92 = getelementptr inbounds nuw %struct.diff_options, ptr %91, i32 0, i32 24
  store i32 1, ptr %92, align 4, !tbaa !85
  br label %93

93:                                               ; preds = %90, %85
  %94 = getelementptr inbounds nuw %struct.rev_info, ptr %9, i32 0, i32 53
  %95 = getelementptr inbounds nuw %struct.diff_options, ptr %94, i32 0, i32 3
  store i32 1, ptr %95, align 4, !tbaa !86
  %96 = getelementptr inbounds nuw %struct.rev_info, ptr %9, i32 0, i32 1
  %97 = getelementptr inbounds nuw %struct.object_array, ptr %96, i32 0, i32 0
  %98 = load i32, ptr %97, align 8, !tbaa !87
  %99 = icmp ne i32 %98, 0
  br i1 %99, label %112, label %100

100:                                              ; preds = %93
  %101 = getelementptr inbounds nuw %struct.rev_info, ptr %9, i32 0, i32 47
  %102 = load i64, ptr %101, align 8, !tbaa !88
  %103 = icmp ne i64 %102, -1
  br i1 %103, label %112, label %104

104:                                              ; preds = %100
  %105 = getelementptr inbounds nuw %struct.rev_info, ptr %9, i32 0, i32 45
  %106 = load i64, ptr %105, align 8, !tbaa !89
  %107 = icmp ne i64 %106, -1
  br i1 %107, label %112, label %108

108:                                              ; preds = %104
  %109 = getelementptr inbounds nuw %struct.rev_info, ptr %9, i32 0, i32 44
  %110 = load i32, ptr %109, align 4, !tbaa !82
  %111 = icmp slt i32 3, %110
  br i1 %111, label %112, label %113

112:                                              ; preds = %108, %104, %100, %93
  call void @usage(ptr noundef @diff_files_usage) #8
  unreachable

113:                                              ; preds = %108
  %114 = getelementptr inbounds nuw %struct.rev_info, ptr %9, i32 0, i32 44
  %115 = load i32, ptr %114, align 4, !tbaa !82
  %116 = icmp eq i32 %115, -1
  br i1 %116, label %117, label %124

117:                                              ; preds = %113
  %118 = getelementptr inbounds nuw %struct.rev_info, ptr %9, i32 0, i32 53
  %119 = getelementptr inbounds nuw %struct.diff_options, ptr %118, i32 0, i32 24
  %120 = load i32, ptr %119, align 4, !tbaa !85
  %121 = and i32 %120, 16
  %122 = icmp ne i32 %121, 0
  br i1 %122, label %123, label %124

123:                                              ; preds = %117
  call void @diff_merges_set_dense_combined_if_unset(ptr noundef %9)
  br label %124

124:                                              ; preds = %123, %117, %113
  %125 = load ptr, ptr @the_repository, align 8, !tbaa !13
  %126 = getelementptr inbounds nuw %struct.rev_info, ptr %9, i32 0, i32 53
  %127 = getelementptr inbounds nuw %struct.diff_options, ptr %126, i32 0, i32 58
  %128 = call i32 @repo_read_index_preload(ptr noundef %125, ptr noundef %127, i32 noundef 0)
  %129 = icmp slt i32 %128, 0
  br i1 %129, label %130, label %131

130:                                              ; preds = %124
  call void (ptr, ...) @die_errno(ptr noundef @.str.4) #8
  unreachable

131:                                              ; preds = %124
  %132 = load i32, ptr %11, align 4, !tbaa !4
  call void @run_diff_files(ptr noundef %9, i32 noundef %132)
  %133 = call i32 @diff_result_code(ptr noundef %9)
  store i32 %133, ptr %10, align 4, !tbaa !4
  call void @release_revisions(ptr noundef %9)
  %134 = load i32, ptr %10, align 4, !tbaa !4
  call void @llvm.lifetime.end.p0(i64 4, ptr %11) #6
  call void @llvm.lifetime.end.p0(i64 4, ptr %10) #6
  call void @llvm.lifetime.end.p0(i64 3008, ptr %9) #6
  ret i32 %134
}