; Function Attrs: nounwind uwtable
define dso_local i32 @cmd_diff_files(i32 noundef %0, ptr noundef %1, ptr noundef %2, ptr noundef readnone captures(none) %3) local_unnamed_addr #0 {
  %5 = alloca %struct.rev_info, align 8
  call void @llvm.lifetime.start.p0(i64 3008, ptr nonnull %5) #5
  tail call void @show_usage_if_asked(i32 noundef %0, ptr noundef %1, ptr noundef nonnull @diff_files_usage) #5
  %6 = load ptr, ptr @the_repository, align 8, !tbaa !4
  tail call void @repo_config(ptr noundef %6, ptr noundef nonnull @git_diff_basic_config, ptr noundef null) #5
  %7 = load ptr, ptr @the_repository, align 8, !tbaa !4
  tail call void @prepare_repo_settings(ptr noundef %7) #5
  %8 = load ptr, ptr @the_repository, align 8, !tbaa !4
  %9 = getelementptr inbounds nuw i8, ptr %8, i64 280
  store i32 0, ptr %9, align 8, !tbaa !9
  call void @repo_init_revisions(ptr noundef %8, ptr noundef nonnull %5, ptr noundef %2) #5
  %10 = getelementptr inbounds nuw i8, ptr %5, i64 328
  store i32 0, ptr %10, align 8, !tbaa !30
  %11 = getelementptr inbounds nuw i8, ptr %5, i64 1788
  store i32 1, ptr %11, align 4, !tbaa !77
  %12 = call i32 @setup_revisions(i32 noundef %0, ptr noundef %1, ptr noundef nonnull %5, ptr noundef null) #5
  %13 = icmp sgt i32 %12, 1
  br i1 %13, label %.lr.ph, label %.critedge

.lr.ph:                                           ; preds = %4
  %14 = getelementptr inbounds nuw i8, ptr %5, i64 1412
  br label %15

15:                                               ; preds = %.lr.ph, %31
  %.037 = phi i32 [ 0, %.lr.ph ], [ %.1, %31 ]
  %.02636 = phi i32 [ %12, %.lr.ph ], [ %32, %31 ]
  %.02735 = phi ptr [ %1, %.lr.ph ], [ %16, %31 ]
  %16 = getelementptr inbounds nuw i8, ptr %.02735, i64 8
  %17 = load ptr, ptr %16, align 8, !tbaa !78
  %18 = load i8, ptr %17, align 1, !tbaa !79
  %19 = icmp eq i8 %18, 45
  br i1 %19, label %20, label %.critedge

20:                                               ; preds = %15
  %21 = call i32 @strcmp(ptr noundef nonnull dereferenceable(1) %17, ptr noundef nonnull dereferenceable(7) @.str) #6
  %.not30 = icmp eq i32 %21, 0
  br i1 %.not30, label %.sink.split, label %22

22:                                               ; preds = %20
  %23 = call i32 @strcmp(ptr noundef nonnull dereferenceable(1) %17, ptr noundef nonnull dereferenceable(7) @.str.1) #6
  %.not31 = icmp eq i32 %23, 0
  br i1 %.not31, label %.sink.split, label %24

24:                                               ; preds = %22
  %25 = call i32 @strcmp(ptr noundef nonnull dereferenceable(1) %17, ptr noundef nonnull dereferenceable(9) @.str.2) #6
  %.not32 = icmp eq i32 %25, 0
  br i1 %.not32, label %.sink.split, label %sub_1

sub_1:                                            ; preds = %24
  %26 = getelementptr inbounds nuw i8, ptr %17, i64 1
  %27 = load i8, ptr %26, align 1
  %.not41 = icmp eq i8 %27, 113
  br i1 %.not41, label %.tail, label %.tail.thread

.tail:                                            ; preds = %sub_1
  %28 = getelementptr inbounds nuw i8, ptr %17, i64 2
  %29 = load i8, ptr %28, align 1
  %30 = icmp eq i8 %29, 0
  br i1 %30, label %31, label %.tail.thread

.tail.thread:                                     ; preds = %sub_1, %.tail
  call void @usage(ptr noundef nonnull @diff_files_usage) #7
  unreachable

.sink.split:                                      ; preds = %24, %22, %20
  %.sink = phi i32 [ 1, %20 ], [ 2, %22 ], [ 3, %24 ]
  store i32 %.sink, ptr %14, align 4, !tbaa !80
  br label %31

31:                                               ; preds = %.sink.split, %.tail
  %.1 = phi i32 [ 1, %.tail ], [ %.037, %.sink.split ]
  %32 = add nsw i32 %.02636, -1
  %33 = icmp sgt i32 %.02636, 2
  br i1 %33, label %15, label %.critedge, !llvm.loop !81

.critedge:                                        ; preds = %15, %31, %4
  %.0.lcssa = phi i32 [ 0, %4 ], [ %.1, %31 ], [ %.037, %15 ]
  %34 = getelementptr inbounds nuw i8, ptr %5, i64 1748
  %35 = load i32, ptr %34, align 4, !tbaa !83
  %.not = icmp eq i32 %35, 0
  br i1 %.not, label %36, label %37

36:                                               ; preds = %.critedge
  store i32 1, ptr %34, align 4, !tbaa !83
  br label %37

37:                                               ; preds = %36, %.critedge
  %38 = phi i32 [ 1, %36 ], [ %35, %.critedge ]
  %39 = getelementptr inbounds nuw i8, ptr %5, i64 1492
  store i32 1, ptr %39, align 4, !tbaa !84
  %40 = getelementptr inbounds nuw i8, ptr %5, i64 8
  %41 = load i32, ptr %40, align 8, !tbaa !85
  %42 = icmp ne i32 %41, 0
  %43 = getelementptr inbounds nuw i8, ptr %5, i64 1432
  %44 = load i64, ptr %43, align 8
  %45 = icmp ne i64 %44, -1
  %or.cond = select i1 %42, i1 true, i1 %45
  %46 = getelementptr inbounds nuw i8, ptr %5, i64 1416
  %47 = load i64, ptr %46, align 8
  %48 = icmp ne i64 %47, -1
  %or.cond5 = select i1 %or.cond, i1 true, i1 %48
  %49 = getelementptr inbounds nuw i8, ptr %5, i64 1412
  %50 = load i32, ptr %49, align 4
  %51 = icmp sgt i32 %50, 3
  %or.cond8 = select i1 %or.cond5, i1 true, i1 %51
  br i1 %or.cond8, label %52, label %53

52:                                               ; preds = %37
  call void @usage(ptr noundef nonnull @diff_files_usage) #7
  unreachable

53:                                               ; preds = %37
  %54 = icmp ne i32 %50, -1
  %55 = and i32 %38, 16
  %.not29 = icmp eq i32 %55, 0
  %or.cond43 = or i1 %54, %.not29
  br i1 %or.cond43, label %57, label %56

56:                                               ; preds = %53
  call void @diff_merges_set_dense_combined_if_unset(ptr noundef nonnull %5) #5
  br label %57

57:                                               ; preds = %56, %53
  %58 = load ptr, ptr @the_repository, align 8, !tbaa !4
  %59 = getelementptr inbounds nuw i8, ptr %5, i64 1928
  %60 = call i32 @repo_read_index_preload(ptr noundef %58, ptr noundef nonnull %59, i32 noundef 0) #5
  %61 = icmp slt i32 %60, 0
  br i1 %61, label %62, label %63

62:                                               ; preds = %57
  call void (ptr, ...) @die_errno(ptr noundef nonnull @.str.4) #7
  unreachable

63:                                               ; preds = %57
  call void @run_diff_files(ptr noundef nonnull %5, i32 noundef %.0.lcssa) #5
  %64 = call i32 @diff_result_code(ptr noundef nonnull %5) #5
  call void @release_revisions(ptr noundef nonnull %5) #5
  call void @llvm.lifetime.end.p0(i64 3008, ptr nonnull %5) #5
  ret i32 %64
}